target datalayout = "e-m:e-p270:32:32-p271:32:32-p272:64:64-i64:64-i128:128-f80:128-n8:16:32:64-S128"
target triple = "x86_64-pc-linux-gnu"

%struct.opj_j2k = type { i32, %union.anon, ptr, ptr, %struct.opj_cp, ptr, ptr, ptr, i32, ptr, ptr, i32, i32, i32 }
%union.anon = type { %struct.opj_j2k_dec }
%struct.opj_j2k_dec = type { i32, ptr, ptr, i32, i32, i32, i32, i32, i32, i32, i64, i32, i32, ptr, %struct.opj_j2k_tlm_info, i32, i32, ptr, i8 }
%struct.opj_j2k_tlm_info = type { i32, ptr, i32 }
%struct.opj_cp = type { i16, i32, i32, i32, i32, ptr, i32, i32, i32, ptr, ptr, i32, i32, ptr, ptr, ptr, i32, i32, i32, ptr, %union.anon.0, i32, i8 }
%union.anon.0 = type { %struct.opj_encoding_param }
%struct.opj_encoding_param = type { i32, i32, ptr, i8, i32, i8 }
%struct.opj_poc = type { i32, i32, i32, i32, i32, i32, i32, i32, i32, i32, [5 x i8], i32, i32, i32, i32, i32, i32, i32, i32, i32, i32, i32, i32, i32, i32, i32, i32, i32, i32, i32, i32, i32, i32, i32, i32, i32 }
%struct.opj_image = type { i32, i32, i32, i32, i32, i32, ptr, ptr, i32 }
%struct.opj_tcp = type { i32, i32, i32, i32, i32, [100 x float], i32, [32 x %struct.opj_poc], i32, ptr, ptr, ptr, i32, i32, [100 x float], ptr, i32, i32, ptr, i32, ptr, ptr, ptr, ptr, i32, i32, ptr, i32, i32, i8 }
%struct.opj_tccp = type { i32, i32, i32, i32, i32, i32, i32, [97 x %struct.opj_stepsize], i32, i32, [33 x i32], [33 x i32], i32 }
%struct.opj_stepsize = type { i32, i32 }

; Function Attrs: nounwind uwtable
define internal void @opj_j2k_copy_tile_component_parameters(ptr noundef %0) #0 {
  %2 = alloca ptr, align 8
  %3 = alloca i32, align 4
  %4 = alloca ptr, align 8
  %5 = alloca ptr, align 8
  %6 = alloca ptr, align 8
  %7 = alloca ptr, align 8
  %8 = alloca i32, align 4
  store ptr %0, ptr %2, align 8, !tbaa !14
  call void @llvm.lifetime.start.p0(i64 4, ptr %3) #10
  call void @llvm.lifetime.start.p0(i64 8, ptr %4) #10
  store ptr null, ptr %4, align 8, !tbaa !50
  call void @llvm.lifetime.start.p0(i64 8, ptr %5) #10
  store ptr null, ptr %5, align 8, !tbaa !103
  call void @llvm.lifetime.start.p0(i64 8, ptr %6) #10
  store ptr null, ptr %6, align 8, !tbaa !138
  call void @llvm.lifetime.start.p0(i64 8, ptr %7) #10
  store ptr null, ptr %7, align 8, !tbaa !138
  call void @llvm.lifetime.start.p0(i64 4, ptr %8) #10
  %9 = load ptr, ptr %2, align 8, !tbaa !14
  %10 = getelementptr inbounds nuw %struct.opj_j2k, ptr %9, i32 0, i32 4
  store ptr %10, ptr %4, align 8, !tbaa !50
  %11 = load ptr, ptr %2, align 8, !tbaa !14
  %12 = getelementptr inbounds nuw %struct.opj_j2k, ptr %11, i32 0, i32 1
  %13 = getelementptr inbounds nuw %struct.opj_j2k_dec, ptr %12, i32 0, i32 0
  %14 = load i32, ptr %13, align 8, !tbaa !20
  %15 = icmp eq i32 %14, 16
  br i1 %15, label %16, label %25

16:                                               ; preds = %1
  %17 = load ptr, ptr %4, align 8, !tbaa !50
  %18 = getelementptr inbounds nuw %struct.opj_cp, ptr %17, i32 0, i32 19
  %19 = load ptr, ptr %18, align 8, !tbaa !102
  %20 = load ptr, ptr %2, align 8, !tbaa !14
  %21 = getelementptr inbounds nuw %struct.opj_j2k, ptr %20, i32 0, i32 8
  %22 = load i32, ptr %21, align 8, !tbaa !248
  %23 = zext i32 %22 to i64
  %24 = getelementptr inbounds nuw %struct.opj_tcp, ptr %19, i64 %23
  br label %30

25:                                               ; preds = %1
  %26 = load ptr, ptr %2, align 8, !tbaa !14
  %27 = getelementptr inbounds nuw %struct.opj_j2k, ptr %26, i32 0, i32 1
  %28 = getelementptr inbounds nuw %struct.opj_j2k_dec, ptr %27, i32 0, i32 1
  %29 = load ptr, ptr %28, align 8, !tbaa !20
  br label %30

30:                                               ; preds = %25, %16
  %31 = phi ptr [ %24, %16 ], [ %29, %25 ]
  store ptr %31, ptr %5, align 8, !tbaa !103
  %32 = load ptr, ptr %5, align 8, !tbaa !103
  %33 = getelementptr inbounds nuw %struct.opj_tcp, ptr %32, i32 0, i32 15
  %34 = load ptr, ptr %33, align 8, !tbaa !131
  %35 = getelementptr inbounds %struct.opj_tccp, ptr %34, i64 0
  store ptr %35, ptr %6, align 8, !tbaa !138
  %36 = load ptr, ptr %6, align 8, !tbaa !138
  %37 = getelementptr inbounds %struct.opj_tccp, ptr %36, i64 1
  store ptr %37, ptr %7, align 8, !tbaa !138
  %38 = load ptr, ptr %6, align 8, !tbaa !138
  %39 = getelementptr inbounds nuw %struct.opj_tccp, ptr %38, i32 0, i32 1
  %40 = load i32, ptr %39, align 4, !tbaa !146
  %41 = mul i32 %40, 4
  store i32 %41, ptr %8, align 4, !tbaa !3
  store i32 1, ptr %3, align 4, !tbaa !3
  br label %42

42:                                               ; preds = %94, %30
  %43 = load i32, ptr %3, align 4, !tbaa !3
  %44 = load ptr, ptr %2, align 8, !tbaa !14
  %45 = getelementptr inbounds nuw %struct.opj_j2k, ptr %44, i32 0, i32 2
  %46 = load ptr, ptr %45, align 8, !tbaa !42
  %47 = getelementptr inbounds nuw %struct.opj_image, ptr %46, i32 0, i32 4
  %48 = load i32, ptr %47, align 8, !tbaa !60
  %49 = icmp ult i32 %43, %48
  br i1 %49, label %50, label %97

50:                                               ; preds = %42
  %51 = load ptr, ptr %6, align 8, !tbaa !138
  %52 = getelementptr inbounds nuw %struct.opj_tccp, ptr %51, i32 0, i32 1
  %53 = load i32, ptr %52, align 4, !tbaa !146
  %54 = load ptr, ptr %7, align 8, !tbaa !138
  %55 = getelementptr inbounds nuw %struct.opj_tccp, ptr %54, i32 0, i32 1
  store i32 %53, ptr %55, align 4, !tbaa !146
  %56 = load ptr, ptr %6, align 8, !tbaa !138
  %57 = getelementptr inbounds nuw %struct.opj_tccp, ptr %56, i32 0, i32 2
  %58 = load i32, ptr %57, align 4, !tbaa !147
  %59 = load ptr, ptr %7, align 8, !tbaa !138
  %60 = getelementptr inbounds nuw %struct.opj_tccp, ptr %59, i32 0, i32 2
  store i32 %58, ptr %60, align 4, !tbaa !147
  %61 = load ptr, ptr %6, align 8, !tbaa !138
  %62 = getelementptr inbounds nuw %struct.opj_tccp, ptr %61, i32 0, i32 3
  %63 = load i32, ptr %62, align 4, !tbaa !148
  %64 = load ptr, ptr %7, align 8, !tbaa !138
  %65 = getelementptr inbounds nuw %struct.opj_tccp, ptr %64, i32 0, i32 3
  store i32 %63, ptr %65, align 4, !tbaa !148
  %66 = load ptr, ptr %6, align 8, !tbaa !138
  %67 = getelementptr inbounds nuw %struct.opj_tccp, ptr %66, i32 0, i32 4
  %68 = load i32, ptr %67, align 4, !tbaa !150
  %69 = load ptr, ptr %7, align 8, !tbaa !138
  %70 = getelementptr inbounds nuw %struct.opj_tccp, ptr %69, i32 0, i32 4
  store i32 %68, ptr %70, align 4, !tbaa !150
  %71 = load ptr, ptr %6, align 8, !tbaa !138
  %72 = getelementptr inbounds nuw %struct.opj_tccp, ptr %71, i32 0, i32 5
  %73 = load i32, ptr %72, align 4, !tbaa !152
  %74 = load ptr, ptr %7, align 8, !tbaa !138
  %75 = getelementptr inbounds nuw %struct.opj_tccp, ptr %74, i32 0, i32 5
  store i32 %73, ptr %75, align 4, !tbaa !152
  %76 = load ptr, ptr %7, align 8, !tbaa !138
  %77 = getelementptr inbounds nuw %struct.opj_tccp, ptr %76, i32 0, i32 10
  %78 = getelementptr inbounds [33 x i32], ptr %77, i64 0, i64 0
  %79 = load ptr, ptr %6, align 8, !tbaa !138
  %80 = getelementptr inbounds nuw %struct.opj_tccp, ptr %79, i32 0, i32 10
  %81 = getelementptr inbounds [33 x i32], ptr %80, i64 0, i64 0
  %82 = load i32, ptr %8, align 4, !tbaa !3
  %83 = zext i32 %82 to i64
  call void @llvm.memcpy.p0.p0.i64(ptr align 4 %78, ptr align 4 %81, i64 %83, i1 false)
  %84 = load ptr, ptr %7, align 8, !tbaa !138
  %85 = getelementptr inbounds nuw %struct.opj_tccp, ptr %84, i32 0, i32 11
  %86 = getelementptr inbounds [33 x i32], ptr %85, i64 0, i64 0
  %87 = load ptr, ptr %6, align 8, !tbaa !138
  %88 = getelementptr inbounds nuw %struct.opj_tccp, ptr %87, i32 0, i32 11
  %89 = getelementptr inbounds [33 x i32], ptr %88, i64 0, i64 0
  %90 = load i32, ptr %8, align 4, !tbaa !3
  %91 = zext i32 %90 to i64
  call void @llvm.memcpy.p0.p0.i64(ptr align 4 %86, ptr align 4 %89, i64 %91, i1 false)
  %92 = load ptr, ptr %7, align 8, !tbaa !138
  %93 = getelementptr inbounds nuw %struct.opj_tccp, ptr %92, i32 1
  store ptr %93, ptr %7, align 8, !tbaa !138
  br label %94

94:                                               ; preds = %50
  %95 = load i32, ptr %3, align 4, !tbaa !3
  %96 = add i32 %95, 1
  store i32 %96, ptr %3, align 4, !tbaa !3
  br label %42, !llvm.loop !463

97:                                               ; preds = %42
  call void @llvm.lifetime.end.p0(i64 4, ptr %8) #10
  call void @llvm.lifetime.end.p0(i64 8, ptr %7) #10
  call void @llvm.lifetime.end.p0(i64 8, ptr %6) #10
  call void @llvm.lifetime.end.p0(i64 8, ptr %5) #10
  call void @llvm.lifetime.end.p0(i64 8, ptr %4) #10
  call void @llvm.lifetime.end.p0(i64 4, ptr %3) #10
  ret void
}