; Function Attrs: nofree norecurse nosync nounwind memory(readwrite, inaccessiblemem: none) uwtable
define internal fastcc void @opj_j2k_copy_tile_component_parameters(ptr noundef readonly captures(none) %0) unnamed_addr #15 {
  %2 = getelementptr inbounds nuw i8, ptr %0, i64 8
  %3 = load i32, ptr %2, align 8, !tbaa !12
  %4 = icmp eq i32 %3, 16
  br i1 %4, label %5, label %12

5:                                                ; preds = %1
  %6 = getelementptr inbounds nuw i8, ptr %0, i64 264
  %7 = load ptr, ptr %6, align 8, !tbaa !34
  %8 = getelementptr inbounds nuw i8, ptr %0, i64 336
  %9 = load i32, ptr %8, align 8, !tbaa !220
  %10 = zext i32 %9 to i64
  %11 = getelementptr inbounds nuw %struct.opj_tcp, ptr %7, i64 %10
  br label %15

12:                                               ; preds = %1
  %13 = getelementptr inbounds nuw i8, ptr %0, i64 16
  %14 = load ptr, ptr %13, align 8, !tbaa !12
  br label %15

15:                                               ; preds = %12, %5
  %16 = phi ptr [ %11, %5 ], [ %14, %12 ]
  %17 = getelementptr inbounds nuw i8, ptr %16, i64 5600
  %18 = load ptr, ptr %17, align 8, !tbaa !120
  %19 = getelementptr inbounds nuw i8, ptr %18, i64 4
  %20 = getelementptr inbounds nuw i8, ptr %0, i64 136
  %21 = load ptr, ptr %20, align 8, !tbaa !47
  %22 = getelementptr inbounds nuw i8, ptr %21, i64 16
  %23 = load i32, ptr %22, align 8, !tbaa !58
  %24 = icmp ugt i32 %23, 1
  br i1 %24, label %.lr.ph, label %._crit_edge

.lr.ph:                                           ; preds = %15
  %25 = load i32, ptr %19, align 4, !tbaa !132
  %26 = shl i32 %25, 2
  %27 = getelementptr inbounds nuw i8, ptr %18, i64 8
  %28 = getelementptr inbounds nuw i8, ptr %18, i64 12
  %29 = getelementptr inbounds nuw i8, ptr %18, i64 16
  %30 = getelementptr inbounds nuw i8, ptr %18, i64 20
  %31 = getelementptr inbounds nuw i8, ptr %18, i64 812
  %32 = zext i32 %26 to i64
  %33 = getelementptr inbounds nuw i8, ptr %18, i64 944
  br label %34

34:                                               ; preds = %.lr.ph, %34
  %.029 = phi i32 [ 1, %.lr.ph ], [ %47, %34 ]
  %.pn28 = phi ptr [ %18, %.lr.ph ], [ %.027, %34 ]
  %.027 = getelementptr inbounds nuw i8, ptr %.pn28, i64 1080
  %35 = load i32, ptr %19, align 4, !tbaa !132
  %36 = getelementptr inbounds nuw i8, ptr %.pn28, i64 1084
  store i32 %35, ptr %36, align 4, !tbaa !132
  %37 = load i32, ptr %27, align 4, !tbaa !133
  %38 = getelementptr inbounds nuw i8, ptr %.pn28, i64 1088
  store i32 %37, ptr %38, align 4, !tbaa !133
  %39 = load i32, ptr %28, align 4, !tbaa !134
  %40 = getelementptr inbounds nuw i8, ptr %.pn28, i64 1092
  store i32 %39, ptr %40, align 4, !tbaa !134
  %41 = load i32, ptr %29, align 4, !tbaa !136
  %42 = getelementptr inbounds nuw i8, ptr %.pn28, i64 1096
  store i32 %41, ptr %42, align 4, !tbaa !136
  %43 = load i32, ptr %30, align 4, !tbaa !138
  %44 = getelementptr inbounds nuw i8, ptr %.pn28, i64 1100
  store i32 %43, ptr %44, align 4, !tbaa !138
  %45 = getelementptr inbounds nuw i8, ptr %.pn28, i64 1892
  tail call void @llvm.memcpy.p0.p0.i64(ptr nonnull align 4 %45, ptr nonnull align 4 %31, i64 %32, i1 false)
  %46 = getelementptr inbounds nuw i8, ptr %.pn28, i64 2024
  tail call void @llvm.memcpy.p0.p0.i64(ptr nonnull align 4 %46, ptr nonnull align 4 %33, i64 %32, i1 false)
  %47 = add nuw i32 %.029, 1
  %48 = load ptr, ptr %20, align 8, !tbaa !47
  %49 = getelementptr inbounds nuw i8, ptr %48, i64 16
  %50 = load i32, ptr %49, align 8, !tbaa !58
  %51 = icmp ult i32 %47, %50
  br i1 %51, label %34, label %._crit_edge, !llvm.loop !434

._crit_edge:                                      ; preds = %34, %15
  ret void
}